; Function Attrs: mustprogress nounwind uwtable
define dso_local noundef ptr @_ZN4llvm9DIBuilder11createLabelEPNS_7DIScopeENS_9StringRefEPNS_6DIFileEjb(ptr noundef nonnull align 8 dereferenceable(416) %0, ptr noundef %1, ptr %2, i64 %3, ptr noundef %4, i32 noundef %5, i1 noundef zeroext %6) local_unnamed_addr #0 align 2 {
  %8 = alloca ptr, align 8
  %9 = getelementptr inbounds nuw i8, ptr %0, i64 8
  %10 = load ptr, ptr %9, align 8
  %11 = icmp eq i64 %3, 0
  br i1 %11, label %_ZN4llvm7DILabel3getERNS_11LLVMContextEPNS_12DILocalScopeENS_9StringRefEPNS_6DIFileEj.exit, label %12

12:                                               ; preds = %7
  %13 = tail call noundef ptr @_ZN4llvm8MDString3getERNS_11LLVMContextENS_9StringRefE(ptr noundef nonnull align 8 dereferenceable(8) %10, ptr %2, i64 %3) #13
  br label %_ZN4llvm7DILabel3getERNS_11LLVMContextEPNS_12DILocalScopeENS_9StringRefEPNS_6DIFileEj.exit

_ZN4llvm7DILabel3getERNS_11LLVMContextEPNS_12DILocalScopeENS_9StringRefEPNS_6DIFileEj.exit: ; preds = %7, %12
  %.0.i.i.i = phi ptr [ %13, %12 ], [ null, %7 ]
  %14 = tail call noundef ptr @_ZN4llvm7DILabel7getImplERNS_11LLVMContextEPNS_8MetadataEPNS_8MDStringES4_jNS3_11StorageTypeEb(ptr noundef nonnull align 8 dereferenceable(8) %10, ptr noundef %1, ptr noundef %.0.i.i.i, ptr noundef %4, i32 noundef %5, i32 noundef 0, i1 noundef zeroext true) #13
  store ptr %14, ptr %8, align 8
  br i1 %6, label %15, label %18

15:                                               ; preds = %_ZN4llvm7DILabel3getERNS_11LLVMContextEPNS_12DILocalScopeENS_9StringRefEPNS_6DIFileEj.exit
  %16 = tail call noundef nonnull align 8 dereferenceable(16) ptr @_ZN4llvm9DIBuilder32getSubprogramNodesTrackingVectorEPKNS_7DIScopeE(ptr noundef nonnull align 8 dereferenceable(416) %0, ptr noundef %1)
  %17 = call noundef nonnull align 8 dereferenceable(8) ptr @_ZN4llvm15SmallVectorImplINS_18TypedTrackingMDRefINS_6MDNodeEEEE12emplace_backIJRPNS_7DILabelEEEERS3_DpOT_(ptr noundef nonnull align 8 dereferenceable(16) %16, ptr noundef nonnull align 8 dereferenceable(8) %8)
  %.pre = load ptr, ptr %8, align 8
  br label %18

18:                                               ; preds = %15, %_ZN4llvm7DILabel3getERNS_11LLVMContextEPNS_12DILocalScopeENS_9StringRefEPNS_6DIFileEj.exit
  %19 = phi ptr [ %.pre, %15 ], [ %14, %_ZN4llvm7DILabel3getERNS_11LLVMContextEPNS_12DILocalScopeENS_9StringRefEPNS_6DIFileEj.exit ]
  ret ptr %19
}